; Function Attrs: mustprogress uwtable
define i32 @ustrcase_map_77(i32 noundef %0, i32 noundef %1, ptr noundef %2, ptr noundef %3, i32 noundef %4, ptr noundef %5, i32 noundef %6, ptr noundef readonly captures(none) %7, ptr noundef %8, ptr noundef nonnull align 4 dereferenceable(4) %9) local_unnamed_addr #0 {
  %11 = load i32, ptr %9, align 4, !tbaa !3
  %12 = icmp slt i32 %11, 1
  br i1 %12, label %13, label %42

13:                                               ; preds = %10
  %14 = icmp slt i32 %4, 0
  br i1 %14, label %20, label %15

15:                                               ; preds = %13
  %16 = icmp eq ptr %3, null
  %17 = icmp ne i32 %4, 0
  %or.cond = and i1 %16, %17
  %18 = icmp eq ptr %5, null
  %or.cond3 = or i1 %or.cond, %18
  %19 = icmp slt i32 %6, -1
  %or.cond5 = or i1 %or.cond3, %19
  br i1 %or.cond5, label %20, label %21

20:                                               ; preds = %15, %13
  store i32 1, ptr %9, align 4, !tbaa !3
  br label %42

21:                                               ; preds = %15
  %22 = icmp eq i32 %6, -1
  br i1 %22, label %23, label %25

23:                                               ; preds = %21
  %24 = tail call i32 @u_strlen_77(ptr noundef nonnull %5)
  br label %25

25:                                               ; preds = %23, %21
  %.043 = phi i32 [ %24, %23 ], [ %6, %21 ]
  br i1 %16, label %35, label %26

26:                                               ; preds = %25
  %.not50 = icmp uge ptr %5, %3
  %27 = zext nneg i32 %4 to i64
  %28 = getelementptr inbounds nuw i16, ptr %3, i64 %27
  %29 = icmp ult ptr %5, %28
  %or.cond55 = select i1 %.not50, i1 %29, i1 false
  br i1 %or.cond55, label %34, label %30

30:                                               ; preds = %26
  %.not51 = icmp uge ptr %3, %5
  %31 = sext i32 %.043 to i64
  %32 = getelementptr inbounds i16, ptr %5, i64 %31
  %33 = icmp ult ptr %3, %32
  %or.cond58 = select i1 %.not51, i1 %33, i1 false
  br i1 %or.cond58, label %34, label %35

34:                                               ; preds = %30, %26
  store i32 1, ptr %9, align 4, !tbaa !3
  br label %42

35:                                               ; preds = %30, %25
  %.not52 = icmp ne ptr %8, null
  %36 = and i32 %1, 8192
  %37 = icmp eq i32 %36, 0
  %or.cond60 = and i1 %37, %.not52
  br i1 %or.cond60, label %38, label %39

38:                                               ; preds = %35
  tail call void @_ZN6icu_775Edits5resetEv(ptr noundef nonnull align 8 dereferenceable(232) %8) #10
  br label %39

39:                                               ; preds = %38, %35
  %40 = tail call noundef i32 %7(i32 noundef %0, i32 noundef %1, ptr noundef %2, ptr noundef %3, i32 noundef %4, ptr noundef nonnull %5, i32 noundef %.043, ptr noundef %8, ptr noundef nonnull align 4 dereferenceable(4) %9)
  %41 = tail call i32 @u_terminateUChars_77(ptr noundef %3, i32 noundef %4, i32 noundef %40, ptr noundef nonnull %9)
  br label %42

42:                                               ; preds = %10, %39, %34, %20
  %.0 = phi i32 [ 0, %20 ], [ 0, %34 ], [ %41, %39 ], [ 0, %10 ]
  ret i32 %.0
}